(dp0
S'albumin'
p1
(lp2
S'min'
p3
aS'max'
p4
aS'mean'
p5
aS'median'
p6
aS'last'
p7
asS'temperature'
p8
(lp9
g3
ag4
ag5
ag6
ag7
asS'calcium'
p10
(lp11
g3
ag4
ag5
ag6
ag7
asS'hr'
p12
(lp13
g3
ag4
ag5
ag6
ag7
asS'bilirubin'
p14
(lp15
g3
ag4
ag5
ag6
ag7
asS'spo2'
p16
(lp17
g3
ag4
ag5
ag6
ag7
asS'ndbp'
p18
(lp19
g3
ag4
ag5
ag6
ag7
asS'creatinine'
p20
(lp21
g3
ag4
ag5
ag6
ag7
asS'nsbp'
p22
(lp23
g3
ag4
ag5
ag6
ag7
asS'hemoglobin'
p24
(lp25
g3
ag4
ag5
ag6
ag7
asS'lactic_acid'
p26
(lp27
g3
ag4
ag5
ag6
ag7
asS'platelet'
p28
(lp29
g3
ag4
ag5
ag6
ag7
asS'bun'
p30
(lp31
g3
ag4
ag5
ag6
ag7
asS'wbc'
p32
(lp33
g3
ag4
ag5
ag6
ag7
asS'race'
p34
(lp35
S'unique'
p36
asS'ph'
p37
(lp38
g3
ag4
ag5
ag6
ag7
asS'ratio_pao2_flo2'
p39
(lp40
g3
ag4
ag5
ag6
ag7
asS'potassium'
p41
(lp42
g3
ag4
ag5
ag6
ag7
asS'urine'
p43
(lp44
g3
ag4
ag5
ag6
ag7
asS'glucose'
p45
(lp46
g3
ag4
ag5
ag6
ag7
as.