(dp0
S'pao2'
p1
(dp2
S'attr_concept_code'
p3
(lp4
I250546000
asS'intv_concept_code'
p5
(lp6
I250546000
assS'Sodium'
p7
(dp8
g3
(lp9
I25197003
asg5
(lp10
I25197003
assS'hemoglobin'
p11
(dp12
g3
(lp13
I104142005
asg5
(lp14
I313995005
assS'spo2'
p15
(dp16
g3
(lp17
I250554003
asg5
(lp18
I250554003
assS'fio2'
p19
(dp20
g3
(lp21
I250774007
asg5
(lp22
I250774007
assS'CVP'
p23
(dp24
g3
(lp25
I54654001
asg5
(lp26
I86265008
assS'platelet'
p27
(dp28
g3
(lp29
I61928009
asg5
(lp30
I61928009
assS'creatinine'
p31
(dp32
g3
(lp33
I113075003
asg5
(lp34
I113075003
assS'Chloride'
p35
(dp36
g3
(lp37
I46511006
asg5
(lp38
I46511006
assS'temperature'
p39
(dp40
g3
(lp41
I386725007
asg5
(lp42
I258710007
assS'RR'
p43
(dp44
g3
(lp45
I86290005
asg5
(lp46
I86290005
assS'iDBP'
p47
(dp48
g3
(lp49
I271650006
asg5
(lp50
I386534000
assS'Anion-Gap'
p51
(dp52
g3
(lp53
I25469001
asg5
(lp54
I25469001
assS'HCO3'
p55
(dp56
g3
(lp57
I413015007
asg5
(lp58
I413015007
assS'nsbp'
p59
(dp60
g3
(lp61
I271649006
asg5
(lp62
I17146006
assS'lactic_acid'
p63
(dp64
g3
(lp65
I14395009
asg5
(lp66
I3926003
assS'ph'
p67
(dp68
g3
(lp69
I8478005
asg5
(lp70
I8478005
assS'PTT'
p71
(dp72
g3
(lp73
I42525009
asg5
(lp74
I42525009
assS'Total-Protein'
p75
(dp76
g3
(lp77
I304383000
asg5
(lp78
I304383000
assS'glucose'
p79
(dp80
g3
(lp81
I33747003
aI36048009
asg5
(lp82
I33747003
aI36048009
assS'map'
p83
(dp84
g3
(lp85
I259010008
asg5
(lp86
I284019003
assS'hr'
p87
(dp88
g3
(lp89
I364075005
asg5
(lp90
I364075005
assS'urine'
p91
(dp92
g3
(lp93
I365678000
asg5
(lp94
I365678000
assS'potassium'
p95
(dp96
g3
(lp97
I59573005
asg5
(lp98
I59573005
assS'ndbp'
p99
(dp100
g3
(lp101
I271650006
asg5
(lp102
I17146006
assS'ratio_pao2_flo2'
p103
(dp104
g3
(lp105
I1000000019
asg5
(lp106
I1000000019
assS'nMBP'
p107
(dp108
g3
(lp109
I6797001
asg5
(lp110
I17146006
assS'sao2'
p111
(dp112
g3
(lp113
I113080007
asg5
(lp114
I113080007
assS'Magnesium'
p115
(dp116
g3
(lp117
I38151008
asg5
(lp118
I38151008
assS'RBC'
p119
(dp120
g3
(lp121
I14089001
asg5
(lp122
I14089001
assS'ALT'
p123
(dp124
g3
(lp125
I56935002
asg5
(lp126
I56935002
assS'aBE'
p127
(dp128
g3
(lp129
I129907001
asg5
(lp130
I129907001
assS'albumin'
p131
(dp132
g3
(lp133
I26758005
asg5
(lp134
I26758005
assS'PT'
p135
(dp136
g3
(lp137
I396451008
asg5
(lp138
I396451008
assS'Weight'
p139
(dp140
g3
(lp141
I363808001
aI107647005
aI27113001
asg5
(lp142
I363808001
aI107647005
aI27113001
assS'PaCO2'
p143
(dp144
g3
(lp145
I167018008
asg5
(lp146
I250564007
assS'INR'
p147
(dp148
g3
(lp149
I165581004
asg5
(lp150
I165581004
assS'iMBP'
p151
(dp152
g3
(lp153
I6797001
asg5
(lp154
I386534000
assS'wbc'
p155
(dp156
g3
(lp157
I767002
asg5
(lp158
I767002
assS'iSBP'
p159
(dp160
g3
(lp161
I271649006
asg5
(lp162
I386534000
ass.