(dp0
S'map'
p1
(dp2
S'stm'
p3
S'mmHg'
p4
sS'conversion'
p5
F1.36
sS'ism'
p6
S'cmH2O'
p7
ssS'pao2'
p8
(dp9
g3
S'kPa'
p10
sg5
F7.5006
sg6
g4
ssS'urine'
p11
(dp12
g3
S'mls/kg/hr'
p13
sg5
I1
sg6
S'cc/kg/hr'
p14
ssS'temperature'
p15
(dp16
g3
S'C'
p17
sg5
I1
sg6
g17
ssS'hemoglobin'
p18
(dp19
g3
S'g/dl'
p20
sg5
I1
sg6
g20
ssS'ndbp'
p21
(dp22
g3
g4
sg5
I1
sg6
g4
ssS'potassium'
p23
(dp24
g3
S'mmol/l'
p25
sg5
I1
sg6
S'meq/l'
p26
ssS'ph'
p27
(dp28
g3
Nsg5
I1
sg6
NssS'nsbp'
p29
(dp30
g3
g4
sg5
I1
sg6
g4
ssS'ratio_pao2_flo2'
p31
(dp32
g3
Nsg5
I1
sg6
NssS'hr'
p33
(dp34
g3
S'bpm'
p35
sg5
I1
sg6
g35
ssS'lactic_acid'
p36
(dp37
g3
g25
sg5
F9.009
sg6
S'mg/dl'
p38
ssS'platelet'
p39
(dp40
g3
S'G/l'
p41
sg5
I1
sg6
S'K/ul'
p42
ssS'wbc'
p43
(dp44
g3
g41
sg5
I1
sg6
g42
ssS'creatinine'
p45
(dp46
g3
S'umol/l'
p47
sg5
F0.01131
sg6
g38
ssS'albumin'
p48
(dp49
g3
S'g/l'
p50
sg5
F0.1
sg6
g20
ssS'spo2'
p51
(dp52
g3
S'%'
p53
sg5
I1
sg6
g53
ssS'fio2'
p54
(dp55
g3
g53
sg5
F0.01
sg6
S'fraction'
p56
ssS'glucose'
p57
(dp58
g3
g25
sg5
F18.0182
sg6
g38
ss.