(dp0
S'map'
p1
(dp2
S'conversion'
p3
F0.1
sS'banner'
p4
S'mmH2O'
p5
sS'ism'
p6
S'cmH2O'
p7
ssS'pao2'
p8
(dp9
g3
F0.735541
sg4
g7
sg6
S'mmHg'
p10
ssS'urine'
p11
(dp12
g3
I1
sg4
S'cc/kg/hr'
p13
sg6
g13
ssS'platelet'
p14
(dp15
g3
I1
sg4
S'K/ul'
p16
sg6
g16
ssS'wbc'
p17
(dp18
g3
I1
sg4
g16
sg6
g16
ssS'hemoglobin'
p19
(dp20
g3
I1
sg4
S'g/dl'
p21
sg6
g21
ssS'ndbp'
p22
(dp23
g3
I1
sg4
g10
sg6
g10
ssS'potassium'
p24
(dp25
g3
I1
sg4
S'meq/l'
p26
sg6
g26
ssS'fio2'
p27
(dp28
g3
F0.01
sg4
S'%'
p29
sg6
S'fraction'
p30
ssS'nsbp'
p31
(dp32
g3
I1
sg4
g10
sg6
g10
ssS'hr'
p33
(dp34
g3
I1
sg4
S'bpm'
p35
sg6
g35
ssS'lactic_acid'
p36
(dp37
g3
F9.009
sg4
S'mmol/l'
p38
sg6
S'mg/dl'
p39
ssS'temperature'
p40
(dp41
g3
I1
sg4
S'C'
p42
sg6
g42
ssS'spo2'
p43
(dp44
g3
I1
sg4
g29
sg6
g29
ssS'creatinine'
p45
(dp46
g3
I1
sg4
g39
sg6
g39
ssS'albumin'
p47
(dp48
g3
I1
sg4
g21
sg6
g21
ssS'ph'
p49
(dp50
g3
I1
sg4
Nsg6
NssS'ratio_pao2_flo2'
p51
(dp52
g3
I1
sg4
Nsg6
NssS'glucose'
p53
(dp54
g3
I1
sg4
g39
sg6
g39
ss.