(dp0
S'pao2'
p1
(lp2
S'min'
p3
aS'max'
p4
aS'mean'
p5
aS'median'
p6
aS'last'
p7
asS'hemoglobin'
p8
(lp9
S'min'
p10
aS'max'
p11
aS'mean'
p12
aS'median'
p13
aS'last'
p14
asS'spo2'
p15
(lp16
g10
ag11
ag12
ag13
ag14
asS'urine'
p17
(lp18
g10
ag11
ag12
ag13
ag14
asS'lactic_acid'
p19
(lp20
g10
ag11
ag12
ag13
ag14
asS'creatinine'
p21
(lp22
g10
ag11
ag12
ag13
ag14
asS'temperature'
p23
(lp24
g10
ag11
ag12
ag13
ag14
asS'bilirubin'
p25
(lp26
g10
ag11
ag12
ag13
ag14
asS'nsbp'
p27
(lp28
g10
ag11
ag12
ag13
ag14
asS'platelet'
p29
(lp30
g10
ag11
ag12
ag13
ag14
asS'ph'
p31
(lp32
g10
ag11
ag12
ag13
ag14
asS'albumin'
p33
(lp34
g10
ag11
ag12
ag13
ag14
asS'glucose'
p35
(lp36
g10
ag11
ag12
ag13
ag14
asS'map'
p37
(lp38
g3
ag4
ag5
ag6
ag7
asS'hr'
p39
(lp40
g10
ag11
ag12
ag13
ag14
asS'fio2'
p41
(lp42
g3
ag4
ag5
ag6
ag7
asS'potassium'
p43
(lp44
g10
ag11
ag12
ag13
ag14
asS'ndbp'
p45
(lp46
g10
ag11
ag12
ag13
ag14
asS'ratio_pao2_flo2'
p47
(lp48
g10
ag11
ag12
ag13
ag14
asS'bun'
p49
(lp50
g10
ag11
ag12
ag13
ag14
asS'sao2'
p51
(lp52
g3
ag4
ag5
ag6
ag7
asS'calcium'
p53
(lp54
g10
ag11
ag12
ag13
ag14
asS'race'
p55
(lp56
S'unique'
p57
asS'wbc'
p58
(lp59
g10
ag11
ag12
ag13
ag14
as.