(dp0
S'pao2'
p1
I120802110
sS'hemoglobin'
p2
I463628023
sS'spo2'
p3
I3053467
sS'urine'
p4
I3141699
sS'lactic_acid'
p5
I245357455
sS'creatinine'
p6
I681994
sS'temperature'
p7
I3144901
sS'bilirubin'
p8
I705932
sS'nsbp'
p9
I3059679
sS'platelet'
p10
I682006
sS'ph'
p11
I120802108
sS'albumin'
p12
I705919
sS'glucose'
p13
I15616636
sS'map'
p14
I3049686
sS'hr'
p15
I3049471
sS'fio2'
p16
I826661
sS'potassium'
p17
I681988
sS'ndbp'
p18
I3059689
sS'ratio_pao2_flo2'
p19
NsS'bun'
p20
I681993
sS'sao2'
p21
I3053467
sS'calcium'
p22
I681996
sS'wbc'
p23
I681997
s.